; Function Attrs: mustprogress uwtable
define hidden void @_ZN4cvc56parser5Lexer10initializeEPNS0_5InputERKNSt7__cxx1112basic_stringIcSt11char_traitsIcESaIcEEE(ptr noundef nonnull align 8 dereferenceable(32892) initializes((80, 89)) %0, ptr noundef %1, ptr noundef nonnull align 8 dereferenceable(32) %2) unnamed_addr #3 align 2 personality ptr @__gxx_personality_v0 {
  %4 = load ptr, ptr %1, align 8, !tbaa !9
  %5 = getelementptr inbounds nuw i8, ptr %4, i64 16
  %6 = load ptr, ptr %5, align 8
  %7 = tail call noundef ptr %6(ptr noundef nonnull align 8 dereferenceable(8) %1)
  %8 = getelementptr inbounds nuw i8, ptr %0, i64 80
  store ptr %7, ptr %8, align 8, !tbaa !85
  %9 = load ptr, ptr %1, align 8, !tbaa !9
  %10 = getelementptr inbounds nuw i8, ptr %9, i64 24
  %11 = load ptr, ptr %10, align 8
  %12 = tail call noundef zeroext i1 %11(ptr noundef nonnull align 8 dereferenceable(8) %1)
  %13 = getelementptr inbounds nuw i8, ptr %0, i64 88
  %14 = zext i1 %12 to i8
  store i8 %14, ptr %13, align 8, !tbaa !86
  %15 = getelementptr inbounds nuw i8, ptr %0, i64 24
  tail call void @_ZNSt7__cxx1112basic_stringIcSt11char_traitsIcESaIcEE9_M_assignERKS4_(ptr noundef nonnull align 8 dereferenceable(32) %15, ptr noundef nonnull align 8 dereferenceable(32) %2)
  %16 = getelementptr inbounds nuw i8, ptr %0, i64 8
  store i32 1, ptr %16, align 8, !tbaa !81
  %17 = getelementptr inbounds nuw i8, ptr %0, i64 12
  store i32 0, ptr %17, align 4, !tbaa !82
  %18 = getelementptr inbounds nuw i8, ptr %0, i64 16
  store i32 1, ptr %18, align 8, !tbaa !83
  %19 = getelementptr inbounds nuw i8, ptr %0, i64 20
  store i32 0, ptr %19, align 4, !tbaa !84
  %20 = getelementptr inbounds nuw i8, ptr %0, i64 56
  %21 = load ptr, ptr %20, align 8, !tbaa !87
  %22 = getelementptr inbounds nuw i8, ptr %0, i64 64
  %23 = load ptr, ptr %22, align 8, !tbaa !88
  %.not.i.i = icmp eq ptr %23, %21
  br i1 %.not.i.i, label %_ZNSt6vectorIN4cvc56parser5TokenESaIS2_EE5clearEv.exit, label %24

24:                                               ; preds = %3
  store ptr %21, ptr %22, align 8, !tbaa !88
  br label %_ZNSt6vectorIN4cvc56parser5TokenESaIS2_EE5clearEv.exit

_ZNSt6vectorIN4cvc56parser5TokenESaIS2_EE5clearEv.exit: ; preds = %3, %24
  %25 = getelementptr inbounds nuw i8, ptr %0, i64 32864
  %26 = getelementptr inbounds nuw i8, ptr %0, i64 32884
  store i8 0, ptr %26, align 4, !tbaa !19
  %27 = getelementptr inbounds nuw i8, ptr %0, i64 32888
  store i32 0, ptr %27, align 8, !tbaa !28
  tail call void @llvm.memset.p0.i64(ptr noundef nonnull align 8 dereferenceable(16) %25, i8 0, i64 16, i1 false)
  ret void
}